target datalayout = "e-m:e-p270:32:32-p271:32:32-p272:64:64-i64:64-i128:128-f80:128-n8:16:32:64-S128"
target triple = "x86_64-pc-linux-gnu"

%struct._zend_phpdbg_globals = type { [11 x %struct._zend_array], %struct._zend_array, %struct._zend_array, ptr, ptr, %struct.phpdbg_frame_t, i32, ptr, %struct.phpdbg_lexer_data, ptr, %struct.sigaction, i32, i64, %struct.phpdbg_btree, %struct.phpdbg_btree, %struct._zend_array, %struct._zend_array, %struct._zend_array, %struct._zend_array, ptr, ptr, i8, ptr, ptr, ptr, i64, ptr, %struct._zval_struct, i32, i32, i8, i8, ptr, ptr, ptr, %struct._zend_array, ptr, ptr, ptr, [3 x %struct.anon.8], ptr, %struct.anon.9, i64, [2 x ptr], [3 x ptr], ptr, i8, ptr, ptr, [500 x i8], i32, %struct.phpdbg_signal_safe_mem, ptr, i64, ptr, i64 }
%struct.phpdbg_frame_t = type { i32, ptr, ptr }
%struct.phpdbg_lexer_data = type { i32, ptr, ptr, ptr, ptr, i32 }
%struct.sigaction = type { %union.anon.7, %struct.__sigset_t, i32, ptr }
%union.anon.7 = type { ptr }
%struct.__sigset_t = type { [16 x i64] }
%struct.phpdbg_btree = type { i64, i64, i8, ptr }
%struct._zval_struct = type { %union._zend_value, %union.anon, %union.anon.2 }
%union._zend_value = type { i64 }
%union.anon = type { i32 }
%union.anon.2 = type { i32 }
%struct._zend_array = type { %struct._zend_refcounted_h, %union.anon.4, i32, %union.anon.6, i32, i32, i32, i32, i64, ptr }
%struct._zend_refcounted_h = type { i32, %union.anon.3 }
%union.anon.3 = type { i32 }
%union.anon.4 = type { i32 }
%union.anon.6 = type { ptr }
%struct.anon.8 = type { i32 }
%struct.anon.9 = type { i8, i32, i32, ptr, i32 }
%struct.phpdbg_signal_safe_mem = type { ptr, i8, ptr, ptr }
%struct._Bucket = type { %struct._zval_struct, i64, ptr }
%struct.phpdbg_btree_result = type { i64, ptr }
%struct._phpdbg_watchpoint_t = type { %union.anon.27, i64, i32, ptr, %struct._zend_array, ptr, %union.anon.28 }
%union.anon.27 = type { ptr }
%union.anon.28 = type { %struct._zend_array }
%struct.uffdio_writeprotect = type { %struct.uffdio_range, i64 }
%struct.uffdio_range = type { i64, i64 }

@phpdbg_globals = external global %struct._zend_phpdbg_globals, align 8
@phpdbg_pagesize = internal global i64 0, align 8

; Function Attrs: nounwind uwtable
define hidden void @phpdbg_reenable_memory_watches() #0 {
  %1 = alloca ptr, align 8
  %2 = alloca i64, align 8
  %3 = alloca ptr, align 8
  %4 = alloca ptr, align 8
  %5 = alloca ptr, align 8
  %6 = alloca ptr, align 8
  %7 = alloca ptr, align 8
  %8 = alloca ptr, align 8
  %9 = alloca %struct.uffdio_writeprotect, align 8
  br label %10

10:                                               ; preds = %0
  %11 = load ptr, ptr getelementptr inbounds (%struct._zend_phpdbg_globals, ptr @phpdbg_globals, i32 0, i32 19), align 8
  store ptr %11, ptr %5, align 8
  %12 = load ptr, ptr %5, align 8
  %13 = getelementptr inbounds %struct._zend_array, ptr %12, i32 0, i32 3
  %14 = load ptr, ptr %13, align 8
  %15 = getelementptr inbounds %struct._Bucket, ptr %14, i64 0
  store ptr %15, ptr %6, align 8
  %16 = load ptr, ptr %5, align 8
  %17 = getelementptr inbounds %struct._zend_array, ptr %16, i32 0, i32 3
  %18 = load ptr, ptr %17, align 8
  %19 = load ptr, ptr %5, align 8
  %20 = getelementptr inbounds %struct._zend_array, ptr %19, i32 0, i32 4
  %21 = load i32, ptr %20, align 8
  %22 = zext i32 %21 to i64
  %23 = getelementptr inbounds %struct._Bucket, ptr %18, i64 %22
  store ptr %23, ptr %7, align 8
  %24 = load ptr, ptr %5, align 8
  %25 = getelementptr inbounds %struct._zend_array, ptr %24, i32 0, i32 1
  %26 = load i32, ptr %25, align 8
  %27 = and i32 %26, 4
  %28 = icmp ne i32 %27, 0
  %29 = xor i1 %28, true
  call void @llvm.assume(i1 %29)
  br label %30

30:                                               ; preds = %94, %10
  %31 = load ptr, ptr %6, align 8
  %32 = load ptr, ptr %7, align 8
  %33 = icmp ne ptr %31, %32
  br i1 %33, label %34, label %97

34:                                               ; preds = %30
  %35 = load ptr, ptr %6, align 8
  %36 = getelementptr inbounds %struct._Bucket, ptr %35, i32 0, i32 0
  store ptr %36, ptr %8, align 8
  %37 = load ptr, ptr %8, align 8
  store ptr %37, ptr %1, align 8
  %38 = load ptr, ptr %1, align 8
  %39 = getelementptr inbounds %struct._zval_struct, ptr %38, i32 0, i32 1
  %40 = load i8, ptr %39, align 8
  %41 = zext i8 %40 to i32
  %42 = icmp eq i32 %41, 0
  %43 = xor i1 %42, true
  %44 = xor i1 %43, true
  %45 = zext i1 %44 to i32
  %46 = sext i32 %45 to i64
  %47 = icmp ne i64 %46, 0
  br i1 %47, label %48, label %49

48:                                               ; preds = %34
  br label %94

49:                                               ; preds = %34
  %50 = load ptr, ptr %6, align 8
  %51 = getelementptr inbounds %struct._Bucket, ptr %50, i32 0, i32 1
  %52 = load i64, ptr %51, align 8
  store i64 %52, ptr %2, align 8
  %53 = load i64, ptr %2, align 8
  %54 = load i64, ptr @phpdbg_pagesize, align 8
  %55 = add i64 %53, %54
  %56 = sub i64 %55, 1
  %57 = call ptr @phpdbg_btree_find_closest(ptr noundef getelementptr inbounds (%struct._zend_phpdbg_globals, ptr @phpdbg_globals, i32 0, i32 13), i64 noundef %56)
  store ptr %57, ptr %3, align 8
  %58 = load ptr, ptr %3, align 8
  %59 = icmp ne ptr %58, null
  br i1 %59, label %60, label %93

60:                                               ; preds = %49
  %61 = load ptr, ptr %3, align 8
  %62 = getelementptr inbounds %struct.phpdbg_btree_result, ptr %61, i32 0, i32 1
  %63 = load ptr, ptr %62, align 8
  store ptr %63, ptr %4, align 8
  %64 = load i64, ptr %2, align 8
  %65 = inttoptr i64 %64 to ptr
  %66 = load ptr, ptr %4, align 8
  %67 = getelementptr inbounds %struct._phpdbg_watchpoint_t, ptr %66, i32 0, i32 0
  %68 = load ptr, ptr %67, align 8
  %69 = load ptr, ptr %4, align 8
  %70 = getelementptr inbounds %struct._phpdbg_watchpoint_t, ptr %69, i32 0, i32 1
  %71 = load i64, ptr %70, align 8
  %72 = getelementptr inbounds i8, ptr %68, i64 %71
  %73 = icmp ult ptr %65, %72
  br i1 %73, label %74, label %92

74:                                               ; preds = %60
  %75 = load i32, ptr getelementptr inbounds (%struct._zend_phpdbg_globals, ptr @phpdbg_globals, i32 0, i32 11), align 8
  %76 = icmp ne i32 %75, 0
  br i1 %76, label %77, label %86

77:                                               ; preds = %74
  %78 = getelementptr inbounds %struct.uffdio_writeprotect, ptr %9, i32 0, i32 0
  %79 = getelementptr inbounds %struct.uffdio_range, ptr %78, i32 0, i32 0
  %80 = load i64, ptr %2, align 8
  store i64 %80, ptr %79, align 8
  %81 = getelementptr inbounds %struct.uffdio_range, ptr %78, i32 0, i32 1
  %82 = load i64, ptr @phpdbg_pagesize, align 8
  store i64 %82, ptr %81, align 8
  %83 = getelementptr inbounds %struct.uffdio_writeprotect, ptr %9, i32 0, i32 1
  store i64 1, ptr %83, align 8
  %84 = load i32, ptr getelementptr inbounds (%struct._zend_phpdbg_globals, ptr @phpdbg_globals, i32 0, i32 11), align 8
  %85 = call i32 (i32, i64, ...) @ioctl(i32 noundef %84, i64 noundef 3222841862, ptr noundef %9) #11
  br label %91

86:                                               ; preds = %74
  %87 = load i64, ptr %2, align 8
  %88 = inttoptr i64 %87 to ptr
  %89 = load i64, ptr @phpdbg_pagesize, align 8
  %90 = call i32 @mprotect(ptr noundef %88, i64 noundef %89, i32 noundef 1) #11
  br label %91

91:                                               ; preds = %86, %77
  br label %92

92:                                               ; preds = %91, %60
  br label %93

93:                                               ; preds = %92, %49
  br label %94

94:                                               ; preds = %93, %48
  %95 = load ptr, ptr %6, align 8
  %96 = getelementptr inbounds %struct._Bucket, ptr %95, i32 1
  store ptr %96, ptr %6, align 8
  br label %30

97:                                               ; preds = %30
  br label %98

98:                                               ; preds = %97
  %99 = load ptr, ptr getelementptr inbounds (%struct._zend_phpdbg_globals, ptr @phpdbg_globals, i32 0, i32 19), align 8
  call void @zend_hash_clean(ptr noundef %99)
  ret void
}