; Function Attrs: nounwind uwtable
define hidden void @phpdbg_reenable_memory_watches() local_unnamed_addr #0 {
  %1 = alloca %struct.uffdio_writeprotect, align 8
  %2 = load ptr, ptr getelementptr inbounds (%struct._zend_phpdbg_globals, ptr @phpdbg_globals, i64 0, i32 19), align 8
  %3 = getelementptr inbounds i8, ptr %2, i64 16
  %4 = load ptr, ptr %3, align 8
  %5 = getelementptr inbounds i8, ptr %2, i64 24
  %6 = load i32, ptr %5, align 8
  %7 = zext i32 %6 to i64
  %8 = getelementptr inbounds %struct._Bucket, ptr %4, i64 %7
  %9 = getelementptr inbounds i8, ptr %2, i64 8
  %10 = load i32, ptr %9, align 8
  %11 = and i32 %10, 4
  %.not = icmp eq i32 %11, 0
  tail call void @llvm.assume(i1 %.not)
  %.not2023 = icmp eq i32 %6, 0
  br i1 %.not2023, label %._crit_edge, label %.lr.ph

.lr.ph:                                           ; preds = %0
  %12 = getelementptr inbounds i8, ptr %1, i64 8
  %13 = getelementptr inbounds i8, ptr %1, i64 16
  br label %14

14:                                               ; preds = %.lr.ph, %42
  %.024 = phi ptr [ %4, %.lr.ph ], [ %43, %42 ]
  %15 = getelementptr inbounds i8, ptr %.024, i64 8
  %16 = load i8, ptr %15, align 8
  %17 = icmp eq i8 %16, 0
  br i1 %17, label %42, label %18

18:                                               ; preds = %14
  %19 = getelementptr inbounds i8, ptr %.024, i64 16
  %20 = load i64, ptr %19, align 8
  %21 = load i64, ptr @phpdbg_pagesize, align 8
  %22 = add i64 %20, -1
  %23 = add i64 %22, %21
  %24 = call ptr @phpdbg_btree_find_closest(ptr noundef nonnull getelementptr inbounds (%struct._zend_phpdbg_globals, ptr @phpdbg_globals, i64 0, i32 13), i64 noundef %23) #17
  %.not21 = icmp eq ptr %24, null
  br i1 %.not21, label %42, label %25

25:                                               ; preds = %18
  %26 = getelementptr inbounds i8, ptr %24, i64 8
  %27 = load ptr, ptr %26, align 8
  %28 = inttoptr i64 %20 to ptr
  %29 = load ptr, ptr %27, align 8
  %30 = getelementptr inbounds i8, ptr %27, i64 8
  %31 = load i64, ptr %30, align 8
  %32 = getelementptr inbounds i8, ptr %29, i64 %31
  %33 = icmp ugt ptr %32, %28
  br i1 %33, label %34, label %42

34:                                               ; preds = %25
  %35 = load i32, ptr getelementptr inbounds (%struct._zend_phpdbg_globals, ptr @phpdbg_globals, i64 0, i32 11), align 8
  %.not22 = icmp eq i32 %35, 0
  br i1 %.not22, label %39, label %36

36:                                               ; preds = %34
  store i64 %20, ptr %1, align 8
  %37 = load i64, ptr @phpdbg_pagesize, align 8
  store i64 %37, ptr %12, align 8
  store i64 1, ptr %13, align 8
  %38 = call i32 (i32, i64, ...) @ioctl(i32 noundef %35, i64 noundef 3222841862, ptr noundef nonnull %1) #17
  br label %42

39:                                               ; preds = %34
  %40 = load i64, ptr @phpdbg_pagesize, align 8
  %41 = call i32 @mprotect(ptr noundef %28, i64 noundef %40, i32 noundef 1) #17
  br label %42

42:                                               ; preds = %18, %36, %39, %25, %14
  %43 = getelementptr inbounds i8, ptr %.024, i64 32
  %.not20 = icmp eq ptr %43, %8
  br i1 %.not20, label %._crit_edge.loopexit, label %14

._crit_edge.loopexit:                             ; preds = %42
  %.pre = load ptr, ptr getelementptr inbounds (%struct._zend_phpdbg_globals, ptr @phpdbg_globals, i64 0, i32 19), align 8
  br label %._crit_edge

._crit_edge:                                      ; preds = %._crit_edge.loopexit, %0
  %44 = phi ptr [ %.pre, %._crit_edge.loopexit ], [ %2, %0 ]
  call void @zend_hash_clean(ptr noundef %44) #17
  ret void
}